; Function Attrs: mustprogress nounwind uwtable
define void @_ZN6gmxapi7Session3runEv(ptr dead_on_unwind noalias nonnull writable sret(%"class.gmxapi::Status") align 8 %0, ptr noundef nonnull readonly align 8 captures(none) dereferenceable(8) %1) local_unnamed_addr #4 align 2 personality ptr @__gxx_personality_v0 {
  %3 = load ptr, ptr %1, align 8, !tbaa !61
  invoke void @_ZN6gmxapi6StatusC1Eb(ptr noundef nonnull align 8 dereferenceable(8) %0, i1 noundef zeroext false)
          to label %4 unwind label %12

4:                                                ; preds = %2
  %5 = getelementptr inbounds nuw i8, ptr %3, i64 64
  %6 = load ptr, ptr %5, align 8, !tbaa !54, !noalias !132
  %7 = invoke noundef i32 @_ZN3gmx8Mdrunner8mdrunnerEv(ptr noundef nonnull align 8 dereferenceable(400) %6)
          to label %8 unwind label %12

8:                                                ; preds = %4
  %9 = icmp eq i32 %7, 0
  br i1 %9, label %10, label %_ZN6gmxapi11SessionImpl3runEv.exit

10:                                               ; preds = %8
  %11 = invoke noundef nonnull align 8 dereferenceable(8) ptr @_ZN6gmxapi6StatusaSEb(ptr noundef nonnull align 8 dereferenceable(8) %0, i1 noundef zeroext true)
          to label %_ZN6gmxapi11SessionImpl3runEv.exit unwind label %12

12:                                               ; preds = %10, %4, %2
  %13 = landingpad { ptr, i32 }
          catch ptr null
  %14 = extractvalue { ptr, i32 } %13, 0
  tail call void @__clang_call_terminate(ptr %14) #27
  unreachable

_ZN6gmxapi11SessionImpl3runEv.exit:               ; preds = %8, %10
  ret void
}